; Function Attrs: mustprogress uwtable
define dso_local noundef zeroext i1 @_ZN5vcpkg15OutdatedPackage15compare_by_nameERKS0_S2_(ptr noundef nonnull align 8 dereferenceable(120) %0, ptr noundef nonnull align 8 dereferenceable(120) %1) #0 align 2 personality ptr @__gxx_personality_v0 {
  %3 = tail call noundef nonnull align 8 dereferenceable(32) ptr @_ZNK5vcpkg11PackageSpec4nameB5cxx11Ev(ptr noundef nonnull align 8 dereferenceable(40) %0)
  %4 = tail call noundef nonnull align 8 dereferenceable(32) ptr @_ZNK5vcpkg11PackageSpec4nameB5cxx11Ev(ptr noundef nonnull align 8 dereferenceable(40) %1)
  %5 = invoke noundef i32 @_ZNKSt7__cxx1112basic_stringIcSt11char_traitsIcESaIcEE7compareERKS4_(ptr noundef nonnull align 8 dereferenceable(32) %3, ptr noundef nonnull align 8 dereferenceable(32) %4)
          to label %_ZStltIcSt11char_traitsIcESaIcEEbRKNSt7__cxx1112basic_stringIT_T0_T1_EESA_.exit unwind label %6

6:                                                ; preds = %2
  %7 = landingpad { ptr, i32 }
          catch ptr null
  %8 = extractvalue { ptr, i32 } %7, 0
  tail call void @__clang_call_terminate(ptr %8) #17
  unreachable

_ZStltIcSt11char_traitsIcESaIcEEbRKNSt7__cxx1112basic_stringIT_T0_T1_EESA_.exit: ; preds = %2
  %9 = icmp slt i32 %5, 0
  ret i1 %9
}